; Function Attrs: mustprogress uwtable
define noundef double @_ZNK8QuantLib15CPICouponPricer13floorletPriceEd(ptr noundef nonnull align 8 dereferenceable(72) %this, double noundef %effectiveFloor) unnamed_addr #8 align 2 {
entry:
  %vtable = load ptr, ptr %this, align 8, !tbaa !35
  %vfn = getelementptr inbounds i8, ptr %vtable, i64 112
  %0 = load ptr, ptr %vfn, align 8
  %call = tail call noundef double %0(ptr noundef nonnull align 8 dereferenceable(72) %this, i32 noundef -1, double noundef %effectiveFloor)
  %gearing_ = getelementptr inbounds nuw i8, ptr %this, i64 56
  %1 = load double, ptr %gearing_, align 8, !tbaa !72
  %mul = fmul double %call, %1
  ret double %mul
}